target datalayout = "e-m:e-p270:32:32-p271:32:32-p272:64:64-i64:64-i128:128-f80:128-n8:16:32:64-S128"
target triple = "x86_64-pc-linux-gnu"

%struct.HuffEntry = type { i16, i8, i32 }

; Function Attrs: nounwind uwtable
define internal i32 @ut_huff_cmp_len(ptr noundef %0, ptr noundef %1) #1 {
  %3 = alloca ptr, align 8
  %4 = alloca ptr, align 8
  %5 = alloca ptr, align 8
  %6 = alloca ptr, align 8
  store ptr %0, ptr %3, align 8, !tbaa !112
  store ptr %1, ptr %4, align 8, !tbaa !112
  call void @llvm.lifetime.start.p0(i64 8, ptr %5) #10
  %7 = load ptr, ptr %3, align 8, !tbaa !112
  store ptr %7, ptr %5, align 8, !tbaa !105
  call void @llvm.lifetime.start.p0(i64 8, ptr %6) #10
  %8 = load ptr, ptr %4, align 8, !tbaa !112
  store ptr %8, ptr %6, align 8, !tbaa !105
  %9 = load ptr, ptr %5, align 8, !tbaa !105
  %10 = getelementptr inbounds nuw %struct.HuffEntry, ptr %9, i32 0, i32 1
  %11 = load i8, ptr %10, align 2, !tbaa !91
  %12 = zext i8 %11 to i32
  %13 = load ptr, ptr %6, align 8, !tbaa !105
  %14 = getelementptr inbounds nuw %struct.HuffEntry, ptr %13, i32 0, i32 1
  %15 = load i8, ptr %14, align 2, !tbaa !91
  %16 = zext i8 %15 to i32
  %17 = sub nsw i32 %12, %16
  %18 = mul nsw i32 %17, 256
  %19 = load ptr, ptr %5, align 8, !tbaa !105
  %20 = getelementptr inbounds nuw %struct.HuffEntry, ptr %19, i32 0, i32 0
  %21 = load i16, ptr %20, align 4, !tbaa !94
  %22 = zext i16 %21 to i32
  %23 = add nsw i32 %18, %22
  %24 = load ptr, ptr %6, align 8, !tbaa !105
  %25 = getelementptr inbounds nuw %struct.HuffEntry, ptr %24, i32 0, i32 0
  %26 = load i16, ptr %25, align 4, !tbaa !94
  %27 = zext i16 %26 to i32
  %28 = sub nsw i32 %23, %27
  call void @llvm.lifetime.end.p0(i64 8, ptr %6) #10
  call void @llvm.lifetime.end.p0(i64 8, ptr %5) #10
  ret i32 %28
}