; Function Attrs: mustprogress nofree norecurse nosync nounwind willreturn memory(argmem: read) uwtable
define internal range(i32 -130815, 130816) i32 @ut_huff_cmp_len(ptr noundef readonly captures(none) %0, ptr noundef readonly captures(none) %1) #7 {
  %3 = getelementptr inbounds nuw i8, ptr %0, i64 2
  %4 = load i8, ptr %3, align 2, !tbaa !83
  %5 = zext i8 %4 to i32
  %6 = getelementptr inbounds nuw i8, ptr %1, i64 2
  %7 = load i8, ptr %6, align 2, !tbaa !83
  %8 = zext i8 %7 to i32
  %9 = sub nsw i32 %5, %8
  %10 = shl nsw i32 %9, 8
  %11 = load i16, ptr %0, align 4, !tbaa !86
  %12 = zext i16 %11 to i32
  %13 = add nsw i32 %10, %12
  %14 = load i16, ptr %1, align 4, !tbaa !86
  %15 = zext i16 %14 to i32
  %16 = sub nsw i32 %13, %15
  ret i32 %16
}